target datalayout = "e-m:e-p270:32:32-p271:32:32-p272:64:64-i64:64-i128:128-f80:128-n8:16:32:64-S128"
target triple = "x86_64-pc-linux-gnu"

%struct._opensafety_packet_info = type { %struct._opensafety_packet_frame, i16, i16, i16, i16, i8, i8, i8, i8, i32, [6 x i8], i8, %struct._opensafety_packet_crc, %union.anon }
%struct._opensafety_packet_frame = type { i8, i16, i16, i32, i16, ptr }
%struct._opensafety_packet_crc = type { i8, i16, i16, i8, i8 }
%union.anon = type { ptr }

@hf_oss_msg_sender = internal global i32 0, align 4
@hf_oss_msg_receiver = internal global i32 0, align 4
@.str.376 = private unnamed_addr constant [19 x i8] c", Dst: 0x%03X (%d)\00", align 1
@.str.377 = private unnamed_addr constant [19 x i8] c", Src: 0x%03X (%d)\00", align 1

; Function Attrs: null_pointer_is_valid sspstrong uwtable
define internal void @opensafety_packet_sender(ptr noundef %0, ptr noundef %1, ptr noundef %2, ptr noundef %3, ptr noundef %4, i16 noundef zeroext %5, i16 noundef zeroext %6, i16 noundef zeroext %7, i16 noundef zeroext %8) #0 {
  %10 = alloca ptr, align 8
  %11 = alloca ptr, align 8
  %12 = alloca ptr, align 8
  %13 = alloca ptr, align 8
  %14 = alloca ptr, align 8
  %15 = alloca i16, align 2
  %16 = alloca i16, align 2
  %17 = alloca i16, align 2
  %18 = alloca i16, align 2
  store ptr %0, ptr %10, align 8
  store ptr %1, ptr %11, align 8
  store ptr %2, ptr %12, align 8
  store ptr %3, ptr %13, align 8
  store ptr %4, ptr %14, align 8
  store i16 %5, ptr %15, align 2
  store i16 %6, ptr %16, align 2
  store i16 %7, ptr %17, align 2
  store i16 %8, ptr %18, align 2
  %19 = load i16, ptr %15, align 2
  %20 = load ptr, ptr %14, align 8
  %21 = getelementptr inbounds nuw %struct._opensafety_packet_info, ptr %20, i32 0, i32 3
  store i16 %19, ptr %21, align 4
  %22 = load i16, ptr %18, align 2
  %23 = zext i16 %22 to i32
  %24 = icmp sgt i32 %23, 0
  br i1 %24, label %25, label %29

25:                                               ; preds = %9
  %26 = load i16, ptr %18, align 2
  %27 = load ptr, ptr %14, align 8
  %28 = getelementptr inbounds nuw %struct._opensafety_packet_info, ptr %27, i32 0, i32 2
  store i16 %26, ptr %28, align 2
  br label %29

29:                                               ; preds = %25, %9
  %30 = load ptr, ptr %10, align 8
  %31 = load ptr, ptr %11, align 8
  %32 = load ptr, ptr %12, align 8
  %33 = load i32, ptr @hf_oss_msg_sender, align 4
  %34 = load i16, ptr %15, align 2
  %35 = load i16, ptr %16, align 2
  %36 = load i16, ptr %17, align 2
  %37 = load i16, ptr %18, align 2
  call void @opensafety_packet_node(ptr noundef %30, ptr noundef %31, ptr noundef %32, i32 noundef %33, i16 noundef zeroext %34, i16 noundef zeroext %35, i16 noundef zeroext %36, i16 noundef zeroext %37)
  %38 = load ptr, ptr %13, align 8
  %39 = load i16, ptr %15, align 2
  %40 = zext i16 %39 to i32
  %41 = load i16, ptr %15, align 2
  %42 = zext i16 %41 to i32
  call void (ptr, ptr, ...) @proto_item_append_text(ptr noundef %38, ptr noundef @.str.377, i32 noundef %40, i32 noundef %42)
  ret void
}

; Function Attrs: null_pointer_is_valid sspstrong uwtable
define internal void @opensafety_packet_receiver(ptr noundef %0, ptr noundef %1, ptr noundef %2, ptr noundef %3, ptr noundef %4, i16 noundef zeroext %5, i16 noundef zeroext %6, i16 noundef zeroext %7, i16 noundef zeroext %8) #0 {
  %10 = alloca ptr, align 8
  %11 = alloca ptr, align 8
  %12 = alloca ptr, align 8
  %13 = alloca ptr, align 8
  %14 = alloca ptr, align 8
  %15 = alloca i16, align 2
  %16 = alloca i16, align 2
  %17 = alloca i16, align 2
  %18 = alloca i16, align 2
  store ptr %0, ptr %10, align 8
  store ptr %1, ptr %11, align 8
  store ptr %2, ptr %12, align 8
  store ptr %3, ptr %13, align 8
  store ptr %4, ptr %14, align 8
  store i16 %5, ptr %15, align 2
  store i16 %6, ptr %16, align 2
  store i16 %7, ptr %17, align 2
  store i16 %8, ptr %18, align 2
  %19 = load i16, ptr %15, align 2
  %20 = load ptr, ptr %14, align 8
  %21 = getelementptr inbounds nuw %struct._opensafety_packet_info, ptr %20, i32 0, i32 4
  store i16 %19, ptr %21, align 2
  %22 = load i16, ptr %18, align 2
  %23 = zext i16 %22 to i32
  %24 = icmp sgt i32 %23, 0
  br i1 %24, label %25, label %29

25:                                               ; preds = %9
  %26 = load i16, ptr %18, align 2
  %27 = load ptr, ptr %14, align 8
  %28 = getelementptr inbounds nuw %struct._opensafety_packet_info, ptr %27, i32 0, i32 2
  store i16 %26, ptr %28, align 2
  br label %29

29:                                               ; preds = %25, %9
  %30 = load ptr, ptr %10, align 8
  %31 = load ptr, ptr %11, align 8
  %32 = load ptr, ptr %12, align 8
  %33 = load i32, ptr @hf_oss_msg_receiver, align 4
  %34 = load i16, ptr %15, align 2
  %35 = load i16, ptr %16, align 2
  %36 = load i16, ptr %17, align 2
  %37 = load i16, ptr %18, align 2
  call void @opensafety_packet_node(ptr noundef %30, ptr noundef %31, ptr noundef %32, i32 noundef %33, i16 noundef zeroext %34, i16 noundef zeroext %35, i16 noundef zeroext %36, i16 noundef zeroext %37)
  %38 = load ptr, ptr %13, align 8
  %39 = load i16, ptr %15, align 2
  %40 = zext i16 %39 to i32
  %41 = load i16, ptr %15, align 2
  %42 = zext i16 %41 to i32
  call void (ptr, ptr, ...) @proto_item_append_text(ptr noundef %38, ptr noundef @.str.376, i32 noundef %40, i32 noundef %42)
  ret void
}

; Function Attrs: null_pointer_is_valid sspstrong uwtable
define internal void @opensafety_packet_sendreceiv(ptr noundef %0, ptr noundef %1, ptr noundef %2, ptr noundef %3, ptr noundef %4, i16 noundef zeroext %5, i16 noundef zeroext %6, i16 noundef zeroext %7, i16 noundef zeroext %8, i16 noundef zeroext %9, i16 noundef zeroext %10) #0 {
  %12 = alloca ptr, align 8
  %13 = alloca ptr, align 8
  %14 = alloca ptr, align 8
  %15 = alloca ptr, align 8
  %16 = alloca ptr, align 8
  %17 = alloca i16, align 2
  %18 = alloca i16, align 2
  %19 = alloca i16, align 2
  %20 = alloca i16, align 2
  %21 = alloca i16, align 2
  %22 = alloca i16, align 2
  store ptr %0, ptr %12, align 8
  store ptr %1, ptr %13, align 8
  store ptr %2, ptr %14, align 8
  store ptr %3, ptr %15, align 8
  store ptr %4, ptr %16, align 8
  store i16 %5, ptr %17, align 2
  store i16 %6, ptr %18, align 2
  store i16 %7, ptr %19, align 2
  store i16 %8, ptr %20, align 2
  store i16 %9, ptr %21, align 2
  store i16 %10, ptr %22, align 2
  %23 = load ptr, ptr %12, align 8
  %24 = load ptr, ptr %13, align 8
  %25 = load ptr, ptr %14, align 8
  %26 = load ptr, ptr %15, align 8
  %27 = load ptr, ptr %16, align 8
  %28 = load i16, ptr %19, align 2
  %29 = load i16, ptr %20, align 2
  %30 = load i16, ptr %21, align 2
  %31 = load i16, ptr %22, align 2
  call void @opensafety_packet_receiver(ptr noundef %23, ptr noundef %24, ptr noundef %25, ptr noundef %26, ptr noundef %27, i16 noundef zeroext %28, i16 noundef zeroext %29, i16 noundef zeroext %30, i16 noundef zeroext %31)
  %32 = load ptr, ptr %12, align 8
  %33 = load ptr, ptr %13, align 8
  %34 = load ptr, ptr %14, align 8
  %35 = load ptr, ptr %15, align 8
  %36 = load ptr, ptr %16, align 8
  %37 = load i16, ptr %17, align 2
  %38 = load i16, ptr %18, align 2
  %39 = load i16, ptr %21, align 2
  %40 = load i16, ptr %22, align 2
  call void @opensafety_packet_sender(ptr noundef %32, ptr noundef %33, ptr noundef %34, ptr noundef %35, ptr noundef %36, i16 noundef zeroext %37, i16 noundef zeroext %38, i16 noundef zeroext %39, i16 noundef zeroext %40)
  ret void
}