; Function Attrs: null_pointer_is_valid sspstrong uwtable
define internal fastcc void @opensafety_packet_sendreceiv(ptr noundef %0, ptr noundef %1, ptr noundef %2, ptr noundef %3, ptr noundef writeonly captures(none) initializes((28, 32)) %4, i16 noundef zeroext range(i16 0, 1276) %5, i16 noundef zeroext %6, i16 noundef zeroext %7, i16 noundef zeroext %8, i16 noundef zeroext %9, i16 noundef zeroext %10) unnamed_addr #0 {
  %12 = getelementptr inbounds nuw i8, ptr %4, i64 30
  store i16 %7, ptr %12, align 2
  %.not.i = icmp eq i16 %10, 0
  br i1 %.not.i, label %opensafety_packet_sender.exit.critedge, label %opensafety_packet_receiver.exit

opensafety_packet_receiver.exit:                  ; preds = %11
  %13 = getelementptr inbounds nuw i8, ptr %4, i64 26
  store i16 %10, ptr %13, align 2
  %14 = load i32, ptr @hf_oss_msg_receiver, align 4
  tail call fastcc void @opensafety_packet_node(ptr noundef %0, ptr noundef %1, ptr noundef %2, i32 noundef %14, i16 noundef zeroext %7, i16 noundef zeroext %8, i16 noundef zeroext %9, i16 noundef zeroext %10)
  %15 = zext i16 %7 to i32
  tail call void (ptr, ptr, ...) @proto_item_append_text(ptr noundef %3, ptr noundef nonnull @.str.376, i32 noundef %15, i32 noundef %15)
  store i16 %10, ptr %13, align 2
  br label %opensafety_packet_sender.exit

opensafety_packet_sender.exit.critedge:           ; preds = %11
  %16 = load i32, ptr @hf_oss_msg_receiver, align 4
  tail call fastcc void @opensafety_packet_node(ptr noundef %0, ptr noundef %1, ptr noundef %2, i32 noundef %16, i16 noundef zeroext %7, i16 noundef zeroext %8, i16 noundef zeroext %9, i16 noundef zeroext 0)
  %17 = zext i16 %7 to i32
  tail call void (ptr, ptr, ...) @proto_item_append_text(ptr noundef %3, ptr noundef nonnull @.str.376, i32 noundef %17, i32 noundef %17)
  br label %opensafety_packet_sender.exit

opensafety_packet_sender.exit:                    ; preds = %opensafety_packet_sender.exit.critedge, %opensafety_packet_receiver.exit
  %18 = getelementptr inbounds nuw i8, ptr %4, i64 28
  store i16 %5, ptr %18, align 4
  %19 = load i32, ptr @hf_oss_msg_sender, align 4
  tail call fastcc void @opensafety_packet_node(ptr noundef %0, ptr noundef %1, ptr noundef %2, i32 noundef %19, i16 noundef zeroext range(i16 0, 1276) %5, i16 noundef zeroext %6, i16 noundef zeroext %9, i16 noundef zeroext %10)
  %20 = zext nneg i16 %5 to i32
  tail call void (ptr, ptr, ...) @proto_item_append_text(ptr noundef %3, ptr noundef nonnull @.str.377, i32 noundef %20, i32 noundef %20)
  ret void
}